; Function Attrs: mustprogress uwtable
define noundef i32 @_Z13gmx_fio_flushP8t_fileio(ptr noundef %0) local_unnamed_addr #0 {
  %2 = getelementptr inbounds nuw i8, ptr %0, i64 88
  tail call void @_Z14tMPI_Lock_lockP9tMPI_Lock(ptr noundef nonnull %2)
  %.val = load ptr, ptr %0, align 8, !tbaa !14
  %.not.i = icmp eq ptr %.val, null
  br i1 %.not.i, label %_ZL17gmx_fio_int_flushP8t_fileio.exit, label %3

3:                                                ; preds = %1
  %4 = tail call i32 @fflush(ptr noundef nonnull %.val)
  br label %_ZL17gmx_fio_int_flushP8t_fileio.exit

_ZL17gmx_fio_int_flushP8t_fileio.exit:            ; preds = %1, %3
  %.0.i = phi i32 [ %4, %3 ], [ 0, %1 ]
  tail call void @_Z16tMPI_Lock_unlockP9tMPI_Lock(ptr noundef nonnull %2)
  ret i32 %.0.i
}